target datalayout = "e-m:e-p270:32:32-p271:32:32-p272:64:64-i64:64-i128:128-f80:128-n8:16:32:64-S128"
target triple = "x86_64-pc-linux-gnu"

@hf_bssgp_rnc_id = internal global i32 0, align 4
@.str.4 = private unnamed_addr constant [15 x i8] c" %s, RNC-ID %u\00", align 1

; Function Attrs: null_pointer_is_valid sspstrong uwtable
define hidden zeroext i16 @de_bssgp_rnc_identifier(ptr noundef %0, ptr noundef %1, ptr noundef %2, i32 noundef %3, i32 noundef %4, ptr noundef %5, i32 noundef %6) #1 {
  %8 = alloca ptr, align 8
  %9 = alloca ptr, align 8
  %10 = alloca ptr, align 8
  %11 = alloca i32, align 4
  %12 = alloca i32, align 4
  %13 = alloca ptr, align 8
  %14 = alloca i32, align 4
  %15 = alloca i32, align 4
  %16 = alloca i16, align 2
  %17 = alloca ptr, align 8
  store ptr %0, ptr %8, align 8
  store ptr %1, ptr %9, align 8
  store ptr %2, ptr %10, align 8
  store i32 %3, ptr %11, align 4
  store i32 %4, ptr %12, align 4
  store ptr %5, ptr %13, align 8
  store i32 %6, ptr %14, align 4
  call void @llvm.lifetime.start.p0(i64 4, ptr %15) #4
  call void @llvm.lifetime.start.p0(i64 2, ptr %16) #4
  %18 = load i32, ptr %11, align 4
  store i32 %18, ptr %15, align 4
  %19 = load i32, ptr %15, align 4
  %20 = load ptr, ptr %8, align 8
  %21 = load ptr, ptr %9, align 8
  %22 = load ptr, ptr %10, align 8
  %23 = load i32, ptr %15, align 4
  %24 = load ptr, ptr %13, align 8
  %25 = load i32, ptr %14, align 4
  %26 = call zeroext i16 @de_gmm_rai(ptr noundef %20, ptr noundef %21, ptr noundef %22, i32 noundef %23, i32 noundef 6, ptr noundef %24, i32 noundef %25)
  %27 = zext i16 %26 to i32
  %28 = add i32 %19, %27
  store i32 %28, ptr %15, align 4
  %29 = load ptr, ptr %8, align 8
  %30 = load i32, ptr %15, align 4
  %31 = call zeroext i16 @tvb_get_ntohs(ptr noundef %29, i32 noundef %30)
  store i16 %31, ptr %16, align 2
  %32 = load ptr, ptr %9, align 8
  %33 = load i32, ptr @hf_bssgp_rnc_id, align 4
  %34 = load ptr, ptr %8, align 8
  %35 = load i32, ptr %15, align 4
  %36 = call ptr @proto_tree_add_item(ptr noundef %32, i32 noundef %33, ptr noundef %34, i32 noundef %35, i32 noundef 2, i32 noundef 0)
  %37 = load i32, ptr %15, align 4
  %38 = add i32 %37, 2
  store i32 %38, ptr %15, align 4
  %39 = load ptr, ptr %13, align 8
  %40 = icmp ne ptr %39, null
  br i1 %40, label %41, label %52

41:                                               ; preds = %7
  call void @llvm.lifetime.start.p0(i64 8, ptr %17) #4
  %42 = load ptr, ptr %13, align 8
  %43 = load i16, ptr %16, align 2
  %44 = zext i16 %43 to i32
  %45 = call noalias ptr (ptr, ptr, ...) @wmem_strdup_printf(ptr noundef null, ptr noundef @.str.4, ptr noundef %42, i32 noundef %44)
  store ptr %45, ptr %17, align 8
  %46 = load ptr, ptr %13, align 8
  %47 = load ptr, ptr %17, align 8
  %48 = load i32, ptr %14, align 4
  %49 = sext i32 %48 to i64
  %50 = call i64 @g_strlcpy(ptr noundef %46, ptr noundef %47, i64 noundef %49)
  %51 = load ptr, ptr %17, align 8
  call void @g_free(ptr noundef %51)
  call void @llvm.lifetime.end.p0(i64 8, ptr %17) #4
  br label %52

52:                                               ; preds = %41, %7
  %53 = load i32, ptr %15, align 4
  %54 = load i32, ptr %11, align 4
  %55 = sub i32 %53, %54
  %56 = trunc i32 %55 to i16
  call void @llvm.lifetime.end.p0(i64 2, ptr %16) #4
  call void @llvm.lifetime.end.p0(i64 4, ptr %15) #4
  ret i16 %56
}