; Function Attrs: null_pointer_is_valid sspstrong uwtable
define hidden zeroext i16 @de_bssgp_rnc_identifier(ptr noundef %0, ptr noundef %1, ptr noundef %2, i32 noundef %3, i32 %4, ptr noundef %5, i32 noundef %6) #1 {
  %8 = tail call zeroext i16 @de_gmm_rai(ptr noundef %0, ptr noundef %1, ptr noundef %2, i32 noundef %3, i32 noundef 6, ptr noundef %5, i32 noundef %6)
  %9 = zext i16 %8 to i32
  %10 = add i32 %3, %9
  %11 = tail call zeroext i16 @tvb_get_ntohs(ptr noundef %0, i32 noundef %10)
  %12 = load i32, ptr @hf_bssgp_rnc_id, align 4
  %13 = tail call ptr @proto_tree_add_item(ptr noundef %1, i32 noundef %12, ptr noundef %0, i32 noundef %10, i32 noundef 2, i32 noundef 0)
  %.not = icmp eq ptr %5, null
  br i1 %.not, label %19, label %14

14:                                               ; preds = %7
  %15 = zext i16 %11 to i32
  %16 = tail call noalias ptr (ptr, ptr, ...) @wmem_strdup_printf(ptr noundef null, ptr noundef nonnull @.str.4, ptr noundef nonnull %5, i32 noundef %15)
  %17 = sext i32 %6 to i64
  %18 = tail call i64 @g_strlcpy(ptr noundef nonnull %5, ptr noundef %16, i64 noundef %17)
  tail call void @g_free(ptr noundef %16)
  br label %19

19:                                               ; preds = %14, %7
  %20 = add i16 %8, 2
  ret i16 %20
}